; ModuleID = '31/177.c'
source_filename = "31/177.c"
target datalayout = "e-m:e-p270:32:32-p271:32:32-p272:64:64-i64:64-f80:128-n8:16:32:64-S128"
target triple = "x86_64-pc-linux-gnu"

%struct.stu = type { [20 x i8], i8, [30 x i8], [20 x i8], [10 x i8], i32, %struct.stu* }

@.str = private unnamed_addr constant [3 x i8] c"%s\00", align 1
@.str.1 = private unnamed_addr constant [4 x i8] c"end\00", align 1
@.str.2 = private unnamed_addr constant [12 x i8] c"%s %c%d%s%s\00", align 1
@.str.3 = private unnamed_addr constant [18 x i8] c"%s %s %c %d %s %s\00", align 1
@.str.4 = private unnamed_addr constant [2 x i8] c"\0A\00", align 1

; Function Attrs: noinline nounwind uwtable
define dso_local i32 @main() #0 {
  %1 = alloca i32, align 4
  %2 = alloca %struct.stu*, align 8
  %3 = alloca %struct.stu*, align 8
  %4 = alloca %struct.stu*, align 8
  %5 = alloca i32, align 4
  store i32 0, i32* %1, align 4
  store i32 0, i32* %5, align 4
  br label %6

6:                                                ; preds = %59, %0
  %7 = call noalias i8* @malloc(i64 100) #4
  %8 = bitcast i8* %7 to %struct.stu*
  store %struct.stu* %8, %struct.stu** %2, align 8
  %9 = load i32, i32* %5, align 4
  %10 = icmp eq i32 %9, 0
  br i1 %10, label %11, label %13

11:                                               ; preds = %6
  %12 = load %struct.stu*, %struct.stu** %2, align 8
  store %struct.stu* %12, %struct.stu** %4, align 8
  br label %13

13:                                               ; preds = %11, %6
  %14 = load %struct.stu*, %struct.stu** %2, align 8
  %15 = getelementptr inbounds %struct.stu, %struct.stu* %14, i32 0, i32 0
  %16 = getelementptr inbounds [20 x i8], [20 x i8]* %15, i64 0, i64 0
  %17 = call i32 (i8*, ...) @__isoc99_scanf(i8* getelementptr inbounds ([3 x i8], [3 x i8]* @.str, i64 0, i64 0), i8* %16)
  %18 = load %struct.stu*, %struct.stu** %2, align 8
  %19 = getelementptr inbounds %struct.stu, %struct.stu* %18, i32 0, i32 0
  %20 = getelementptr inbounds [20 x i8], [20 x i8]* %19, i64 0, i64 0
  %21 = call i32 @strcmp(i8* %20, i8* getelementptr inbounds ([4 x i8], [4 x i8]* @.str.1, i64 0, i64 0)) #5
  %22 = icmp eq i32 %21, 0
  br i1 %22, label %23, label %24

23:                                               ; preds = %13
  br label %62

24:                                               ; preds = %13
  %25 = load i32, i32* %5, align 4
  %26 = icmp eq i32 %25, 0
  br i1 %26, label %27, label %29

27:                                               ; preds = %24
  %28 = load %struct.stu*, %struct.stu** %2, align 8
  store %struct.stu* %28, %struct.stu** %4, align 8
  br label %29

29:                                               ; preds = %27, %24
  %30 = load %struct.stu*, %struct.stu** %2, align 8
  %31 = getelementptr inbounds %struct.stu, %struct.stu* %30, i32 0, i32 2
  %32 = getelementptr inbounds [30 x i8], [30 x i8]* %31, i64 0, i64 0
  %33 = load %struct.stu*, %struct.stu** %2, align 8
  %34 = getelementptr inbounds %struct.stu, %struct.stu* %33, i32 0, i32 1
  %35 = load %struct.stu*, %struct.stu** %2, align 8
  %36 = getelementptr inbounds %struct.stu, %struct.stu* %35, i32 0, i32 5
  %37 = load %struct.stu*, %struct.stu** %2, align 8
  %38 = getelementptr inbounds %struct.stu, %struct.stu* %37, i32 0, i32 4
  %39 = getelementptr inbounds [10 x i8], [10 x i8]* %38, i64 0, i64 0
  %40 = load %struct.stu*, %struct.stu** %2, align 8
  %41 = getelementptr inbounds %struct.stu, %struct.stu* %40, i32 0, i32 3
  %42 = getelementptr inbounds [20 x i8], [20 x i8]* %41, i64 0, i64 0
  %43 = call i32 (i8*, ...) @__isoc99_scanf(i8* getelementptr inbounds ([12 x i8], [12 x i8]* @.str.2, i64 0, i64 0), i8* %32, i8* %34, i32* %36, i8* %39, i8* %42)
  %44 = load i32, i32* %5, align 4
  %45 = icmp eq i32 %44, 0
  br i1 %45, label %46, label %50

46:                                               ; preds = %29
  %47 = load %struct.stu*, %struct.stu** %4, align 8
  %48 = getelementptr inbounds %struct.stu, %struct.stu* %47, i32 0, i32 6
  store %struct.stu* null, %struct.stu** %48, align 8
  %49 = load %struct.stu*, %struct.stu** %4, align 8
  store %struct.stu* %49, %struct.stu** %3, align 8
  br label %57

50:                                               ; preds = %29
  %51 = load %struct.stu*, %struct.stu** %2, align 8
  %52 = load %struct.stu*, %struct.stu** %3, align 8
  %53 = getelementptr inbounds %struct.stu, %struct.stu* %52, i32 0, i32 6
  store %struct.stu* %51, %struct.stu** %53, align 8
  %54 = load %struct.stu*, %struct.stu** %2, align 8
  store %struct.stu* %54, %struct.stu** %3, align 8
  %55 = load %struct.stu*, %struct.stu** %3, align 8
  %56 = getelementptr inbounds %struct.stu, %struct.stu* %55, i32 0, i32 6
  store %struct.stu* null, %struct.stu** %56, align 8
  br label %57

57:                                               ; preds = %50, %46
  br label %58

58:                                               ; preds = %57
  br label %59

59:                                               ; preds = %58
  %60 = load i32, i32* %5, align 4
  %61 = add nsw i32 %60, 1
  store i32 %61, i32* %5, align 4
  br label %6

62:                                               ; preds = %23
  %63 = load %struct.stu*, %struct.stu** %4, align 8
  %64 = load %struct.stu*, %struct.stu** %4, align 8
  call void @output(%struct.stu* %63, %struct.stu* %64)
  %65 = load i32, i32* %1, align 4
  ret i32 %65
}

; Function Attrs: nounwind
declare dso_local noalias i8* @malloc(i64) #1

declare dso_local i32 @__isoc99_scanf(i8*, ...) #2

; Function Attrs: nounwind readonly
declare dso_local i32 @strcmp(i8*, i8*) #3

; Function Attrs: noinline nounwind uwtable
define dso_local void @output(%struct.stu* %0, %struct.stu* %1) #0 {
  %3 = alloca %struct.stu*, align 8
  %4 = alloca %struct.stu*, align 8
  store %struct.stu* %0, %struct.stu** %3, align 8
  store %struct.stu* %1, %struct.stu** %4, align 8
  %5 = load %struct.stu*, %struct.stu** %3, align 8
  %6 = getelementptr inbounds %struct.stu, %struct.stu* %5, i32 0, i32 6
  %7 = load %struct.stu*, %struct.stu** %6, align 8
  %8 = icmp ne %struct.stu* %7, null
  br i1 %8, label %9, label %14

9:                                                ; preds = %2
  %10 = load %struct.stu*, %struct.stu** %3, align 8
  %11 = getelementptr inbounds %struct.stu, %struct.stu* %10, i32 0, i32 6
  %12 = load %struct.stu*, %struct.stu** %11, align 8
  %13 = load %struct.stu*, %struct.stu** %4, align 8
  call void @output(%struct.stu* %12, %struct.stu* %13)
  br label %14

14:                                               ; preds = %9, %2
  %15 = load %struct.stu*, %struct.stu** %3, align 8
  %16 = getelementptr inbounds %struct.stu, %struct.stu* %15, i32 0, i32 0
  %17 = getelementptr inbounds [20 x i8], [20 x i8]* %16, i64 0, i64 0
  %18 = load %struct.stu*, %struct.stu** %3, align 8
  %19 = getelementptr inbounds %struct.stu, %struct.stu* %18, i32 0, i32 2
  %20 = getelementptr inbounds [30 x i8], [30 x i8]* %19, i64 0, i64 0
  %21 = load %struct.stu*, %struct.stu** %3, align 8
  %22 = getelementptr inbounds %struct.stu, %struct.stu* %21, i32 0, i32 1
  %23 = load i8, i8* %22, align 4
  %24 = sext i8 %23 to i32
  %25 = load %struct.stu*, %struct.stu** %3, align 8
  %26 = getelementptr inbounds %struct.stu, %struct.stu* %25, i32 0, i32 5
  %27 = load i32, i32* %26, align 4
  %28 = load %struct.stu*, %struct.stu** %3, align 8
  %29 = getelementptr inbounds %struct.stu, %struct.stu* %28, i32 0, i32 4
  %30 = getelementptr inbounds [10 x i8], [10 x i8]* %29, i64 0, i64 0
  %31 = load %struct.stu*, %struct.stu** %3, align 8
  %32 = getelementptr inbounds %struct.stu, %struct.stu* %31, i32 0, i32 3
  %33 = getelementptr inbounds [20 x i8], [20 x i8]* %32, i64 0, i64 0
  %34 = call i32 (i8*, ...) @printf(i8* getelementptr inbounds ([18 x i8], [18 x i8]* @.str.3, i64 0, i64 0), i8* %17, i8* %20, i32 %24, i32 %27, i8* %30, i8* %33)
  %35 = load %struct.stu*, %struct.stu** %3, align 8
  %36 = load %struct.stu*, %struct.stu** %4, align 8
  %37 = icmp ne %struct.stu* %35, %36
  br i1 %37, label %38, label %40

38:                                               ; preds = %14
  %39 = call i32 (i8*, ...) @printf(i8* getelementptr inbounds ([2 x i8], [2 x i8]* @.str.4, i64 0, i64 0))
  br label %40

40:                                               ; preds = %38, %14
  ret void
}

declare dso_local i32 @printf(i8*, ...) #2


!llvm.module.flags = !{!0}
!llvm.ident = !{!1}

!0 = !{i32 1, !"wchar_size", i32 4}
!1 = !{!"clang version 10.0.0-4ubuntu1 "}
